	.file	"rndlinux.c"
	.text
.Ltext0:
	.section	.rodata.str1.1,"aMS",@progbits,1
.LC0:
	.string	"open_dev_random"
.LC1:
	.string	"wait_dev_random"
.LC2:
	.string	"can't open %s: %s\n"
	.section	.rodata.str1.8,"aMS",@progbits,1
	.align 8
.LC3:
	.string	"error setting FD_CLOEXEC on fd %d: %s\n"
	.text
	.p2align 4,,15
	.type	open_device, @function
open_device:
.LFB111:
	.file 1 "rndlinux.c"
	.loc 1 82 0
	.cfi_startproc
.LVL0:
	pushq	%r12
	.cfi_def_cfa_offset 16
	.cfi_offset 12, -16
	pushq	%rbp
	.cfi_def_cfa_offset 24
	.cfi_offset 6, -24
	movq	%rdi, %rbp
	pushq	%rbx
	.cfi_def_cfa_offset 32
	.cfi_offset 3, -32
	subq	$32, %rsp
	.cfi_def_cfa_offset 64
	.loc 1 82 0
	movq	%fs:40, %rax
	movq	%rax, 24(%rsp)
	xorl	%eax, %eax
	.loc 1 85 0
	testl	%esi, %esi
	jne	.L12
.LVL1:
.LBB17:
.LBB18:
	.file 2 "/usr/include/x86_64-linux-gnu/bits/fcntl2.h"
	.loc 2 53 0
	xorl	%esi, %esi
.LVL2:
	xorl	%eax, %eax
	call	open@PLT
.LVL3:
.LBE18:
.LBE17:
	.loc 1 99 0
	cmpl	$-1, %eax
.LBB22:
.LBB19:
	.loc 2 53 0
	movl	%eax, %ebx
.LVL4:
.LBE19:
.LBE22:
	.loc 1 99 0
	je	.L13
.L3:
.LVL5:
.LBB23:
.LBB24:
	.loc 1 66 0
	xorl	%edx, %edx
	xorl	%eax, %eax
	movl	$1, %esi
	movl	%ebx, %edi
	call	fcntl@PLT
.LVL6:
	.loc 1 67 0
	testl	%eax, %eax
	js	.L7
.LVL7:
	.loc 1 69 0
	orl	$1, %eax
.LVL8:
	.loc 1 70 0
	movl	$2, %esi
	movl	%ebx, %edi
	.loc 1 69 0
	movl	%eax, %edx
	.loc 1 70 0
	xorl	%eax, %eax
.LVL9:
	call	fcntl@PLT
.LVL10:
.LBE24:
.LBE23:
	.loc 1 102 0
	testl	%eax, %eax
	jne	.L7
.L1:
	.loc 1 118 0
	movq	24(%rsp), %rcx
	xorq	%fs:40, %rcx
	movl	%ebx, %eax
	jne	.L14
	addq	$32, %rsp
	.cfi_remember_state
	.cfi_def_cfa_offset 32
	popq	%rbx
	.cfi_def_cfa_offset 24
	popq	%rbp
	.cfi_def_cfa_offset 16
.LVL11:
	popq	%r12
	.cfi_def_cfa_offset 8
	ret
.LVL12:
	.p2align 4,,10
	.p2align 3
.L7:
	.cfi_restore_state
	.loc 1 104 0
	call	__errno_location@PLT
.LVL13:
	.loc 1 103 0
	movl	(%rax), %edi
	call	strerror@PLT
.LVL14:
	leaq	.LC3(%rip), %rdi
	movq	%rax, %rdx
	movl	%ebx, %esi
	xorl	%eax, %eax
	call	_gcry_log_error@PLT
.LVL15:
	jmp	.L1
.LVL16:
	.p2align 4,,10
	.p2align 3
.L12:
	.loc 1 86 0
	leaq	.LC0(%rip), %rdi
.LVL17:
	xorl	%ecx, %ecx
	movl	$1, %edx
	movl	$88, %esi
.LVL18:
.LBB25:
	.loc 1 96 0
	movq	%rsp, %r12
.LBE25:
	.loc 1 86 0
	call	_gcry_random_progress@PLT
.LVL19:
	jmp	.L4
	.p2align 4,,10
	.p2align 3
.L15:
.LBB26:
	.loc 1 95 0
	leaq	.LC1(%rip), %rdi
	movl	$5, %ecx
	xorl	%edx, %edx
	movl	$88, %esi
	.loc 1 93 0
	movq	$5, (%rsp)
	.loc 1 94 0
	movq	$0, 8(%rsp)
	.loc 1 95 0
	call	_gcry_random_progress@PLT
.LVL20:
	.loc 1 96 0
	movq	%r12, %r8
	xorl	%ecx, %ecx
	xorl	%edx, %edx
	xorl	%esi, %esi
	xorl	%edi, %edi
	call	select@PLT
.LVL21:
.L4:
.LBE26:
.LBB27:
.LBB20:
	.loc 2 53 0
	xorl	%esi, %esi
	xorl	%eax, %eax
	movq	%rbp, %rdi
	call	open@PLT
.LVL22:
.LBE20:
.LBE27:
	.loc 1 89 0
	cmpl	$-1, %eax
.LBB28:
.LBB21:
	.loc 2 53 0
	movl	%eax, %ebx
.LVL23:
.LBE21:
.LBE28:
	.loc 1 89 0
	je	.L15
	jmp	.L3
.L13:
	.loc 1 100 0
	call	__errno_location@PLT
.LVL24:
	movl	(%rax), %edi
	call	strerror@PLT
.LVL25:
	leaq	.LC2(%rip), %rdi
	movq	%rax, %rdx
	movq	%rbp, %rsi
	xorl	%eax, %eax
	call	_gcry_log_fatal@PLT
.LVL26:
.L14:
	.loc 1 118 0
	call	__stack_chk_fail@PLT
.LVL27:
	.cfi_endproc
.LFE111:
	.size	open_device, .-open_device
	.section	.rodata.str1.1
.LC4:
	.string	"/dev/random"
.LC5:
	.string	"/dev/urandom"
	.section	.rodata.str1.8
	.align 8
.LC6:
	.string	"unexpected error from getentropy: %s\n"
	.align 8
.LC7:
	.string	"getentropy returned only %ld of %zu requested bytes\n"
	.section	.rodata.str1.1
.LC8:
	.string	"need_entropy"
.LC9:
	.string	"select() error: %s\n"
	.section	.rodata.str1.8
	.align 8
.LC10:
	.string	"bogus read from random device (n=%d)\n"
	.align 8
.LC11:
	.string	"read error on random device: %s\n"
	.text
	.p2align 4,,15
	.globl	_gcry_rndlinux_gather_random
	.hidden	_gcry_rndlinux_gather_random
	.type	_gcry_rndlinux_gather_random, @function
_gcry_rndlinux_gather_random:
.LFB112:
	.loc 1 131 0
	.cfi_startproc
.LVL28:
	pushq	%r15
	.cfi_def_cfa_offset 16
	.cfi_offset 15, -16
	pushq	%r14
	.cfi_def_cfa_offset 24
	.cfi_offset 14, -24
	movq	%rdi, %r14
	pushq	%r13
	.cfi_def_cfa_offset 32
	.cfi_offset 13, -32
	pushq	%r12
	.cfi_def_cfa_offset 40
	.cfi_offset 12, -40
	pushq	%rbp
	.cfi_def_cfa_offset 48
	.cfi_offset 6, -48
	pushq	%rbx
	.cfi_def_cfa_offset 56
	.cfi_offset 3, -56
	movl	%ecx, %ebx
	subq	$1016, %rsp
	.cfi_def_cfa_offset 1072
	.loc 1 131 0
	movq	%fs:40, %rax
	movq	%rax, 1000(%rsp)
	xorl	%eax, %eax
.LVL29:
	.loc 1 152 0
	cmpl	$-1, only_urandom.8958(%rip)
	.loc 1 131 0
	movl	%esi, 8(%rsp)
	movq	%rdx, 16(%rsp)
.LVL30:
	.loc 1 152 0
	je	.L90
.LVL31:
.L17:
	.loc 1 161 0
	testq	%r14, %r14
	je	.L91
	.loc 1 182 0
	call	getpid@PLT
.LVL32:
	movl	%eax, 76(%rsp)
	.loc 1 183 0
	movl	my_pid.8960(%rip), %edx
	movl	76(%rsp), %eax
	cmpl	%eax, %edx
	je	.L23
	.loc 1 185 0
	movl	fd_random.8957(%rip), %edi
	cmpl	$-1, %edi
	jne	.L92
	.loc 1 190 0
	movl	fd_urandom.8956(%rip), %edi
	cmpl	$-1, %edi
	jne	.L93
.L25:
	.loc 1 195 0
	movl	76(%rsp), %eax
	movl	%eax, my_pid.8960(%rip)
.L23:
	.loc 1 202 0
	movq	16(%rsp), %r12
	movl	8(%rsp), %r15d
	movq	%r14, %rdi
	movq	%r12, %rdx
	movl	%r15d, %esi
	call	_gcry_rndhw_poll_slow@PLT
.LVL33:
	.loc 1 203 0
	cmpq	$1, %r12
	jbe	.L26
	.loc 1 204 0
	subq	%rax, %r12
.LVL34:
	.loc 1 209 0
	cmpl	$1, %ebx
	jg	.L94
.LVL35:
.L27:
	.loc 1 237 0
	movl	fd_urandom.8956(%rip), %eax
	cmpl	$-1, %eax
	movl	%eax, 12(%rsp)
	je	.L95
.L30:
.LVL36:
	.loc 1 250 0
	testq	%r12, %r12
	je	.L32
.LBB29:
	.loc 1 323 0
	movl	12(%rsp), %esi
	leaq	224(%rsp), %rbp
.LBE29:
	.loc 1 246 0
	movl	$0, 44(%rsp)
	.loc 1 147 0
	movl	$0, 40(%rsp)
	.loc 1 146 0
	movq	$0, 24(%rsp)
.LBB40:
	.loc 1 323 0
	movl	%esi, %eax
	sarl	$31, %eax
	shrl	$26, %eax
	leal	(%rsi,%rax), %ecx
	andl	$63, %ecx
	subl	%eax, %ecx
	movl	$1, %eax
	salq	%cl, %rax
	movq	%rax, 48(%rsp)
.LBB30:
	.loc 1 322 0
	leaq	96(%rsp), %rax
	movq	%rax, 32(%rsp)
.LBE30:
	.loc 1 327 0
	leaq	80(%rsp), %rax
	movq	%rax, 56(%rsp)
.LVL37:
	.p2align 4,,10
	.p2align 3
.L46:
.LBB31:
	.loc 1 273 0
	cmpq	$768, %r12
	movl	$768, %r13d
	movl	$256, %ebx
	cmovbe	%r12, %r13
	cmpq	$256, %r12
	cmovbe	%r13, %rbx
	jmp	.L34
.LVL38:
	.p2align 4,,10
	.p2align 3
.L97:
	.loc 1 280 0 discriminator 1
	call	__errno_location@PLT
.LVL39:
	movl	(%rax), %edi
	cmpl	$4, %edi
	jne	.L96
.LVL40:
.L34:
	.loc 1 276 0
	call	_gcry_pre_syscall@PLT
.LVL41:
	.loc 1 277 0
	xorl	%ecx, %ecx
	movq	%rbx, %rdx
	movq	%rbp, %rsi
	movl	$318, %edi
	xorl	%eax, %eax
	call	syscall@PLT
.LVL42:
	movq	%rax, %r15
.LVL43:
	.loc 1 278 0
	call	_gcry_post_syscall@PLT
.LVL44:
	.loc 1 280 0
	cmpq	$-1, %r15
	je	.L97
	.loc 1 289 0
	cmpq	%rbx, %r15
	jne	.L98
	.loc 1 295 0
	subq	%rbx, %r12
.LVL45:
	.loc 1 294 0
	movl	8(%rsp), %edx
	movq	%rbx, %rsi
	movq	%rbp, %rdi
	call	*%r14
.LVL46:
.L53:
.LBE31:
.LBE40:
	.loc 1 250 0
	testq	%r12, %r12
	jne	.L46
	.loc 1 363 0 discriminator 3
	movl	$768, %esi
	movq	%rbp, %rdi
	call	_gcry_fast_wipememory@PLT
.LVL47:
	.loc 1 365 0 discriminator 3
	movl	40(%rsp), %edx
	testl	%edx, %edx
	je	.L22
	.loc 1 366 0
	movq	16(%rsp), %rax
	leaq	.LC8(%rip), %rdi
	movl	$88, %esi
	movl	%eax, %ecx
	movl	%eax, %edx
	call	_gcry_random_progress@PLT
.LVL48:
	.p2align 4,,10
	.p2align 3
.L22:
	.loc 1 369 0
	xorl	%eax, %eax
	movq	1000(%rsp), %rsi
	xorq	%fs:40, %rsi
	jne	.L99
	addq	$1016, %rsp
	.cfi_remember_state
	.cfi_def_cfa_offset 56
	popq	%rbx
	.cfi_def_cfa_offset 48
	popq	%rbp
	.cfi_def_cfa_offset 40
	popq	%r12
	.cfi_def_cfa_offset 32
	popq	%r13
	.cfi_def_cfa_offset 24
	popq	%r14
	.cfi_def_cfa_offset 16
.LVL49:
	popq	%r15
	.cfi_def_cfa_offset 8
	ret
.LVL50:
.L26:
	.cfi_restore_state
	.loc 1 209 0
	cmpl	$1, %ebx
	jg	.L54
	movq	16(%rsp), %r12
	jmp	.L27
.LVL51:
	.p2align 4,,10
	.p2align 3
.L96:
.LBB41:
.LBB32:
	.loc 1 281 0
	cmpl	$38, %edi
	movq	%rax, %r15
.LVL52:
	je	.L100
	.loc 1 286 0
	call	strerror@PLT
.LVL53:
	leaq	.LC6(%rip), %rdi
	movq	%rax, %rsi
	xorl	%eax, %eax
	call	_gcry_log_fatal@PLT
.LVL54:
	.p2align 4,,10
	.p2align 3
.L100:
	movq	16(%rsp), %rbx
.LVL55:
.LBE32:
	.loc 1 305 0
	movl	40(%rsp), %esi
	subq	%r12, %rbx
	testl	%esi, %esi
	jne	.L37
	.loc 1 305 0 is_stmt 0 discriminator 1
	cmpq	24(%rsp), %rbx
	je	.L56
.L37:
.LVL56:
	.loc 1 308 0 is_stmt 1
	movl	16(%rsp), %ecx
	leaq	.LC8(%rip), %rdi
	movl	%ebx, %edx
	movl	$88, %esi
	call	_gcry_random_progress@PLT
.LVL57:
	.loc 1 310 0
	movl	$1, 40(%rsp)
.LVL58:
.L38:
	.loc 1 319 0
	movl	12(%rsp), %edx
	cmpl	$1023, %edx
	jg	.L44
.LBB33:
	.loc 1 322 0
	xorl	%eax, %eax
	movl	$16, %ecx
	movq	32(%rsp), %rdi
#APP
# 322 "rndlinux.c" 1
	cld; rep; stosq
# 0 "" 2
.LVL59:
#NO_APP
.LBE33:
.LBB34:
	.loc 1 323 0
	movslq	%edx, %rdi
.LVL60:
	movl	%edx, 12(%rsp)
	call	__fdelt_chk@PLT
.LVL61:
.LBE34:
	movq	48(%rsp), %rcx
	orq	%rcx, 96(%rsp,%rax,8)
	.loc 1 324 0
	movslq	44(%rsp), %rax
	.loc 1 325 0
	cmpl	$1, %eax
	.loc 1 324 0
	movq	%rax, 80(%rsp)
	.loc 1 325 0
	sbbq	%rax, %rax
	andl	$100000, %eax
	movq	%rax, 88(%rsp)
	.loc 1 326 0
	call	_gcry_pre_syscall@PLT
.LVL62:
	.loc 1 327 0
	movl	12(%rsp), %edx
	movq	56(%rsp), %r8
	xorl	%ecx, %ecx
	movq	32(%rsp), %rsi
	leal	1(%rdx), %edi
	xorl	%edx, %edx
	call	select@PLT
.LVL63:
	movl	%eax, 24(%rsp)
.LVL64:
	.loc 1 328 0
	call	_gcry_post_syscall@PLT
.LVL65:
	.loc 1 329 0
	movl	24(%rsp), %eax
	testl	%eax, %eax
	je	.L58
	.loc 1 335 0
	cmpl	$-1, %eax
	je	.L101
.LVL66:
	.p2align 4,,10
	.p2align 3
.L44:
.LBB35:
.LBB36:
.LBB37:
	.file 3 "/usr/include/x86_64-linux-gnu/bits/unistd.h"
	.loc 3 39 0
	movl	12(%rsp), %edi
	movl	$768, %ecx
	movq	%r13, %rdx
	movq	%rbp, %rsi
	call	__read_chk@PLT
.LVL67:
.LBE37:
.LBE36:
	.loc 1 351 0
	testl	%eax, %eax
	js	.L41
	.loc 1 351 0 is_stmt 0 discriminator 1
	movslq	%eax, %r15
	cmpq	%r13, %r15
	ja	.L102
.LVL68:
.L42:
.LBE35:
	.loc 1 360 0 is_stmt 1
	movl	8(%rsp), %edx
	movq	%r15, %rsi
	movq	%rbp, %rdi
	.loc 1 361 0
	subq	%r15, %r12
.LVL69:
	.loc 1 360 0
	call	*%r14
.LVL70:
	movq	%rbx, 24(%rsp)
	jmp	.L53
.LVL71:
	.p2align 4,,10
	.p2align 3
.L41:
	.loc 1 357 0
	cmpl	$-1, %eax
	jne	.L103
	.loc 1 357 0 is_stmt 0 discriminator 1
	movl	(%r15), %edi
	cmpl	$4, %edi
	je	.L44
	.loc 1 359 0 is_stmt 1
	call	strerror@PLT
.LVL72:
	leaq	.LC11(%rip), %rdi
	movq	%rax, %rsi
	xorl	%eax, %eax
	call	_gcry_log_fatal@PLT
.LVL73:
	.p2align 4,,10
	.p2align 3
.L102:
.LBB38:
	.loc 1 353 0
	leaq	.LC10(%rip), %rdi
	movl	%eax, %esi
	xorl	%eax, %eax
.LVL74:
	movq	%r13, %r15
	call	_gcry_log_error@PLT
.LVL75:
	jmp	.L42
.LVL76:
.L91:
.LBE38:
.LBE41:
	.loc 1 164 0
	movl	fd_random.8957(%rip), %edi
	cmpl	$-1, %edi
	je	.L20
	.loc 1 166 0
	call	close@PLT
.LVL77:
	.loc 1 167 0
	movl	$-1, fd_random.8957(%rip)
.L20:
	.loc 1 169 0
	movl	fd_urandom.8956(%rip), %edi
	cmpl	$-1, %edi
	je	.L21
	.loc 1 171 0
	call	close@PLT
.LVL78:
	.loc 1 172 0
	movl	$-1, fd_urandom.8956(%rip)
.L21:
	.loc 1 175 0
	call	_gcry_rndjent_fini@PLT
.LVL79:
	.loc 1 176 0
	jmp	.L22
.LVL80:
.L56:
.LBB42:
	movq	24(%rsp), %rbx
	jmp	.L38
.LVL81:
.L58:
	movq	%rbx, 24(%rsp)
.LVL82:
	.loc 1 332 0
	movl	$3, 44(%rsp)
.LVL83:
	.loc 1 331 0
	movl	$1, 40(%rsp)
.LVL84:
	jmp	.L53
.LVL85:
.L90:
.LBE42:
	.loc 1 154 0
	call	getpid@PLT
.LVL86:
	movl	%eax, my_pid.8960(%rip)
	.loc 1 155 0
	call	_gcry_random_read_conf@PLT
.LVL87:
	.loc 1 156 0
	testb	$2, %al
	setne	%al
	movzbl	%al, %eax
	movl	%eax, only_urandom.8958(%rip)
	jmp	.L17
.L93:
	.loc 1 192 0
	call	close@PLT
.LVL88:
	.loc 1 195 0
	movl	76(%rsp), %eax
	.loc 1 193 0
	movl	$-1, fd_urandom.8956(%rip)
	.loc 1 195 0
	movl	%eax, my_pid.8960(%rip)
	jmp	.L23
.L92:
	.loc 1 187 0
	call	close@PLT
.LVL89:
	.loc 1 190 0
	movl	fd_urandom.8956(%rip), %edi
	.loc 1 188 0
	movl	$-1, fd_random.8957(%rip)
	.loc 1 190 0
	cmpl	$-1, %edi
	je	.L25
	jmp	.L93
.LVL90:
.L94:
	.loc 1 211 0
	movq	%r12, %rbx
.LVL91:
	movl	%r15d, %esi
	movq	%r14, %rdi
	shrq	%rbx
	movq	%rbx, %rdx
	call	_gcry_rndjent_poll@PLT
.LVL92:
	cmpq	%rax, %rbx
	cmova	%rax, %rbx
.LVL93:
	.loc 1 214 0
	cmpq	$1, %r12
	jbe	.L28
	.loc 1 215 0
	subq	%rbx, %r12
.LVL94:
.L28:
	.loc 1 226 0
	movl	only_urandom.8958(%rip), %eax
	testl	%eax, %eax
	jne	.L27
	.loc 1 228 0
	movl	fd_random.8957(%rip), %eax
	cmpl	$-1, %eax
	movl	%eax, 12(%rsp)
	jne	.L30
	.loc 1 230 0
	movzbl	ever_opened.8959(%rip), %esi
	leaq	.LC4(%rip), %rdi
	andl	$1, %esi
	call	open_device
.LVL95:
	.loc 1 231 0
	orb	$1, ever_opened.8959(%rip)
.LVL96:
	.loc 1 230 0
	movl	%eax, 12(%rsp)
	movl	%eax, fd_random.8957(%rip)
.LVL97:
	.loc 1 233 0
	jmp	.L30
.LVL98:
.L54:
	.loc 1 211 0
	movl	8(%rsp), %esi
	xorl	%edx, %edx
	movq	%r14, %rdi
	call	_gcry_rndjent_poll@PLT
.LVL99:
	movq	16(%rsp), %r12
	jmp	.L28
.LVL100:
.L101:
.LBB43:
	.loc 1 337 0
	movl	(%r15), %edi
	call	strerror@PLT
.LVL101:
	leaq	.LC9(%rip), %rdi
	movq	%rax, %rsi
	xorl	%eax, %eax
	call	_gcry_log_error@PLT
.LVL102:
	.loc 1 338 0
	movl	44(%rsp), %ecx
	movq	%rbx, 24(%rsp)
.LVL103:
	testl	%ecx, %ecx
	jne	.L53
	.loc 1 339 0
	movl	$1, 44(%rsp)
.LVL104:
	jmp	.L53
.LVL105:
.L95:
.LBE43:
	.loc 1 239 0
	movzbl	ever_opened.8959(%rip), %esi
	leaq	.LC5(%rip), %rdi
	andl	$2, %esi
	movzbl	%sil, %esi
	call	open_device
.LVL106:
	.loc 1 240 0
	orb	$2, ever_opened.8959(%rip)
.LVL107:
	.loc 1 239 0
	movl	%eax, 12(%rsp)
	movl	%eax, fd_urandom.8956(%rip)
.LVL108:
	jmp	.L30
.LVL109:
.L32:
	.loc 1 363 0
	leaq	224(%rsp), %rdi
	movl	$768, %esi
	call	_gcry_fast_wipememory@PLT
.LVL110:
	jmp	.L22
.LVL111:
.L98:
.LBB44:
.LBB39:
	.loc 1 290 0
	leaq	.LC7(%rip), %rdi
	movq	%rbx, %rdx
	movq	%r15, %rsi
	xorl	%eax, %eax
	call	_gcry_log_fatal@PLT
.LVL112:
.L99:
.LBE39:
.LBE44:
	.loc 1 369 0
	call	__stack_chk_fail@PLT
.LVL113:
.L103:
	movslq	%eax, %r15
	jmp	.L42
	.cfi_endproc
.LFE112:
	.size	_gcry_rndlinux_gather_random, .-_gcry_rndlinux_gather_random
	.local	ever_opened.8959
	.comm	ever_opened.8959,1,1
	.data
	.align 4
	.type	fd_urandom.8956, @object
	.size	fd_urandom.8956, 4
fd_urandom.8956:
	.long	-1
	.align 4
	.type	fd_random.8957, @object
	.size	fd_random.8957, 4
fd_random.8957:
	.long	-1
	.local	my_pid.8960
	.comm	my_pid.8960,4,4
	.align 4
	.type	only_urandom.8958, @object
	.size	only_urandom.8958, 4
only_urandom.8958:
	.long	-1
	.text
.Letext0:
	.file 4 "/usr/lib/gcc/x86_64-linux-gnu/7/include/stddef.h"
	.file 5 "/usr/include/x86_64-linux-gnu/bits/types.h"
	.file 6 "/usr/include/x86_64-linux-gnu/bits/libio.h"
	.file 7 "/usr/include/stdio.h"
	.file 8 "/usr/include/x86_64-linux-gnu/bits/sys_errlist.h"
	.file 9 "/usr/include/x86_64-linux-gnu/sys/types.h"
	.file 10 "/usr/include/x86_64-linux-gnu/bits/types/struct_timeval.h"
	.file 11 "/usr/include/x86_64-linux-gnu/sys/select.h"
	.file 12 "/usr/include/errno.h"
	.file 13 "/usr/include/x86_64-linux-gnu/sys/time.h"
	.file 14 "/usr/include/unistd.h"
	.file 15 "/usr/include/x86_64-linux-gnu/bits/getopt_core.h"
	.file 16 "../src/types.h"
	.file 17 "/usr/include/x86_64-linux-gnu/bits/sockaddr.h"
	.file 18 "/usr/include/x86_64-linux-gnu/bits/socket.h"
	.file 19 "../src/g10lib.h"
	.file 20 "../src/gcrypt.h"
	.file 21 "rand-internal.h"
	.file 22 "/usr/include/string.h"
	.file 23 "/usr/include/x86_64-linux-gnu/bits/select2.h"
	.file 24 "/usr/include/fcntl.h"
	.section	.note.GNU-stack,"",@progbits
